target datalayout = "e-m:e-p270:32:32-p271:32:32-p272:64:64-i64:64-i128:128-f80:128-n8:16:32:64-S128"
target triple = "x86_64-pc-linux-gnu"

@.str.757 = private unnamed_addr constant [16 x i8] c"PH < -32 dB (0)\00", align 1
@.str.758 = private unnamed_addr constant [17 x i8] c"PH >= 38 dB (63)\00", align 1
@.str.759 = private unnamed_addr constant [25 x i8] c"%d dB <= PH < %d dB (%d)\00", align 1

; Function Attrs: nounwind uwtable
define internal void @mac_nr_phr_fmt(ptr noundef %0, i32 noundef %1) #0 {
  %3 = alloca ptr, align 8
  %4 = alloca i32, align 4
  %5 = alloca i32, align 4
  store ptr %0, ptr %3, align 8
  store i32 %1, ptr %4, align 4
  %6 = load i32, ptr %4, align 4
  store i32 %6, ptr %5, align 4
  %7 = load i32, ptr %5, align 4
  %8 = icmp eq i32 %7, 0
  br i1 %8, label %9, label %12

9:                                                ; preds = %2
  %10 = load ptr, ptr %3, align 8
  %11 = call i32 (ptr, i64, ptr, ...) @snprintf(ptr noundef %10, i64 noundef 240, ptr noundef @.str.757) #9
  br label %43

12:                                               ; preds = %2
  %13 = load i32, ptr %5, align 4
  %14 = icmp eq i32 %13, 63
  br i1 %14, label %15, label %18

15:                                               ; preds = %12
  %16 = load ptr, ptr %3, align 8
  %17 = call i32 (ptr, i64, ptr, ...) @snprintf(ptr noundef %16, i64 noundef 240, ptr noundef @.str.758) #9
  br label %42

18:                                               ; preds = %12
  %19 = load i32, ptr %5, align 4
  %20 = icmp sle i32 %19, 54
  br i1 %20, label %21, label %29

21:                                               ; preds = %18
  %22 = load ptr, ptr %3, align 8
  %23 = load i32, ptr %5, align 4
  %24 = sub i32 %23, 33
  %25 = load i32, ptr %5, align 4
  %26 = sub i32 %25, 32
  %27 = load i32, ptr %5, align 4
  %28 = call i32 (ptr, i64, ptr, ...) @snprintf(ptr noundef %22, i64 noundef 240, ptr noundef @.str.759, i32 noundef %24, i32 noundef %26, i32 noundef %27) #9
  br label %41

29:                                               ; preds = %18
  %30 = load ptr, ptr %3, align 8
  %31 = load i32, ptr %5, align 4
  %32 = sub i32 %31, 55
  %33 = mul i32 2, %32
  %34 = add i32 22, %33
  %35 = load i32, ptr %5, align 4
  %36 = sub i32 %35, 55
  %37 = mul i32 2, %36
  %38 = add i32 24, %37
  %39 = load i32, ptr %5, align 4
  %40 = call i32 (ptr, i64, ptr, ...) @snprintf(ptr noundef %30, i64 noundef 240, ptr noundef @.str.759, i32 noundef %34, i32 noundef %38, i32 noundef %39) #9
  br label %41

41:                                               ; preds = %29, %21
  br label %42

42:                                               ; preds = %41, %15
  br label %43

43:                                               ; preds = %42, %9
  ret void
}