; Function Attrs: nofree nounwind uwtable
define internal void @mac_nr_phr_fmt(ptr noundef writeonly captures(none) %0, i32 noundef %1) #2 {
  switch i32 %1, label %5 [
    i32 0, label %3
    i32 63, label %4
  ]

3:                                                ; preds = %2
  tail call void @llvm.memcpy.p0.p0.i64(ptr noundef nonnull align 1 dereferenceable(16) %0, ptr noundef nonnull align 1 dereferenceable(16) @.str.757, i64 16, i1 false)
  br label %16

4:                                                ; preds = %2
  tail call void @llvm.memcpy.p0.p0.i64(ptr noundef nonnull align 1 dereferenceable(17) %0, ptr noundef nonnull align 1 dereferenceable(17) @.str.758, i64 17, i1 false)
  br label %16

5:                                                ; preds = %2
  %6 = icmp slt i32 %1, 55
  br i1 %6, label %7, label %11

7:                                                ; preds = %5
  %8 = add i32 %1, -33
  %9 = add i32 %1, -32
  %10 = tail call i32 (ptr, i64, ptr, ...) @snprintf(ptr noundef nonnull dereferenceable(1) %0, i64 noundef 240, ptr noundef nonnull @.str.759, i32 noundef %8, i32 noundef %9, i32 noundef %1) #12
  br label %16

11:                                               ; preds = %5
  %12 = shl nuw i32 %1, 1
  %13 = add i32 %12, -88
  %14 = add i32 %12, -86
  %15 = tail call i32 (ptr, i64, ptr, ...) @snprintf(ptr noundef nonnull dereferenceable(1) %0, i64 noundef 240, ptr noundef nonnull @.str.759, i32 noundef %13, i32 noundef %14, i32 noundef %1) #12
  br label %16

16:                                               ; preds = %4, %11, %7, %3
  ret void
}